target datalayout = "e-m:e-p270:32:32-p271:32:32-p272:64:64-i64:64-i128:128-f80:128-n8:16:32:64-S128"
target triple = "x86_64-pc-linux-gnu"

@.str.73 = private unnamed_addr constant [7 x i8] c"begin \00", align 1

; Function Attrs: nounwind uwtable
define i32 @isuuencodebegin(ptr noundef %0) #0 {
  %2 = alloca i32, align 4
  %3 = alloca ptr, align 8
  store ptr %0, ptr %3, align 8
  %4 = load ptr, ptr %3, align 8
  %5 = getelementptr inbounds i8, ptr %4, i64 0
  %6 = load i8, ptr %5, align 1
  %7 = sext i8 %6 to i32
  %8 = icmp ne i32 %7, 98
  br i1 %8, label %9, label %10

9:                                                ; preds = %1
  store i32 0, ptr %2, align 4
  br label %67

10:                                               ; preds = %1
  %11 = load ptr, ptr %3, align 8
  %12 = call i64 @strlen(ptr noundef %11) #13
  %13 = icmp ult i64 %12, 10
  br i1 %13, label %14, label %15

14:                                               ; preds = %10
  store i32 0, ptr %2, align 4
  br label %67

15:                                               ; preds = %10
  %16 = load ptr, ptr %3, align 8
  %17 = call i32 @strncasecmp(ptr noundef %16, ptr noundef @.str.73, i64 noundef 6) #13
  %18 = icmp eq i32 %17, 0
  br i1 %18, label %19, label %64

19:                                               ; preds = %15
  %20 = call ptr @__ctype_b_loc() #12
  %21 = load ptr, ptr %20, align 8
  %22 = load ptr, ptr %3, align 8
  %23 = getelementptr inbounds i8, ptr %22, i64 6
  %24 = load i8, ptr %23, align 1
  %25 = sext i8 %24 to i32
  %26 = sext i32 %25 to i64
  %27 = getelementptr inbounds i16, ptr %21, i64 %26
  %28 = load i16, ptr %27, align 2
  %29 = zext i16 %28 to i32
  %30 = and i32 %29, 2048
  %31 = icmp ne i32 %30, 0
  br i1 %31, label %32, label %64

32:                                               ; preds = %19
  %33 = call ptr @__ctype_b_loc() #12
  %34 = load ptr, ptr %33, align 8
  %35 = load ptr, ptr %3, align 8
  %36 = getelementptr inbounds i8, ptr %35, i64 7
  %37 = load i8, ptr %36, align 1
  %38 = sext i8 %37 to i32
  %39 = sext i32 %38 to i64
  %40 = getelementptr inbounds i16, ptr %34, i64 %39
  %41 = load i16, ptr %40, align 2
  %42 = zext i16 %41 to i32
  %43 = and i32 %42, 2048
  %44 = icmp ne i32 %43, 0
  br i1 %44, label %45, label %64

45:                                               ; preds = %32
  %46 = call ptr @__ctype_b_loc() #12
  %47 = load ptr, ptr %46, align 8
  %48 = load ptr, ptr %3, align 8
  %49 = getelementptr inbounds i8, ptr %48, i64 8
  %50 = load i8, ptr %49, align 1
  %51 = sext i8 %50 to i32
  %52 = sext i32 %51 to i64
  %53 = getelementptr inbounds i16, ptr %47, i64 %52
  %54 = load i16, ptr %53, align 2
  %55 = zext i16 %54 to i32
  %56 = and i32 %55, 2048
  %57 = icmp ne i32 %56, 0
  br i1 %57, label %58, label %64

58:                                               ; preds = %45
  %59 = load ptr, ptr %3, align 8
  %60 = getelementptr inbounds i8, ptr %59, i64 9
  %61 = load i8, ptr %60, align 1
  %62 = sext i8 %61 to i32
  %63 = icmp eq i32 %62, 32
  br label %64

64:                                               ; preds = %58, %45, %32, %19, %15
  %65 = phi i1 [ false, %45 ], [ false, %32 ], [ false, %19 ], [ false, %15 ], [ %63, %58 ]
  %66 = zext i1 %65 to i32
  store i32 %66, ptr %2, align 4
  br label %67

67:                                               ; preds = %64, %14, %9
  %68 = load i32, ptr %2, align 4
  ret i32 %68
}