; Function Attrs: mustprogress nofree nounwind willreturn memory(read) uwtable
define i32 @isuuencodebegin(ptr nocapture noundef readonly %0) local_unnamed_addr #16 {
  %2 = load i8, ptr %0, align 1
  %.not = icmp eq i8 %2, 98
  br i1 %.not, label %3, label %37

3:                                                ; preds = %1
  %4 = tail call i64 @strlen(ptr noundef nonnull dereferenceable(1) %0) #23
  %5 = icmp ult i64 %4, 10
  br i1 %5, label %37, label %6

6:                                                ; preds = %3
  %7 = tail call i32 @strncasecmp(ptr noundef nonnull %0, ptr noundef nonnull @.str.73, i64 noundef 6) #23
  %8 = icmp eq i32 %7, 0
  br i1 %8, label %9, label %37

9:                                                ; preds = %6
  %10 = tail call ptr @__ctype_b_loc() #22
  %11 = load ptr, ptr %10, align 8
  %12 = getelementptr inbounds i8, ptr %0, i64 6
  %13 = load i8, ptr %12, align 1
  %14 = sext i8 %13 to i64
  %15 = getelementptr inbounds i16, ptr %11, i64 %14
  %16 = load i16, ptr %15, align 2
  %17 = and i16 %16, 2048
  %.not7 = icmp eq i16 %17, 0
  br i1 %.not7, label %37, label %18

18:                                               ; preds = %9
  %19 = getelementptr inbounds i8, ptr %0, i64 7
  %20 = load i8, ptr %19, align 1
  %21 = sext i8 %20 to i64
  %22 = getelementptr inbounds i16, ptr %11, i64 %21
  %23 = load i16, ptr %22, align 2
  %24 = and i16 %23, 2048
  %.not8 = icmp eq i16 %24, 0
  br i1 %.not8, label %37, label %25

25:                                               ; preds = %18
  %26 = getelementptr inbounds i8, ptr %0, i64 8
  %27 = load i8, ptr %26, align 1
  %28 = sext i8 %27 to i64
  %29 = getelementptr inbounds i16, ptr %11, i64 %28
  %30 = load i16, ptr %29, align 2
  %31 = and i16 %30, 2048
  %.not9 = icmp eq i16 %31, 0
  br i1 %.not9, label %37, label %32

32:                                               ; preds = %25
  %33 = getelementptr inbounds i8, ptr %0, i64 9
  %34 = load i8, ptr %33, align 1
  %35 = icmp eq i8 %34, 32
  %36 = zext i1 %35 to i32
  br label %37

37:                                               ; preds = %6, %9, %18, %25, %32, %3, %1
  %.0 = phi i32 [ 0, %1 ], [ 0, %3 ], [ 0, %25 ], [ 0, %18 ], [ 0, %9 ], [ 0, %6 ], [ %36, %32 ]
  ret i32 %.0
}